target datalayout = "e-m:e-p270:32:32-p271:32:32-p272:64:64-i64:64-i128:128-f80:128-n8:16:32:64-S128"
target triple = "x86_64-pc-linux-gnu"

%struct._object = type { %union.anon, ptr }
%union.anon = type { i64 }
%struct.SHA3object = type { %struct._object, i8, %struct.PyMutex, ptr }
%struct.PyMutex = type { i8 }

@PyExc_ValueError = external global ptr, align 8
@.str.43 = private unnamed_addr constant [20 x i8] c"length is too large\00", align 1

; Function Attrs: nounwind uwtable
define internal ptr @_SHAKE_digest(ptr noundef %0, i64 noundef %1, i32 noundef %2) #0 {
  %4 = alloca ptr, align 8
  %5 = alloca ptr, align 8
  %6 = alloca i64, align 8
  %7 = alloca i32, align 4
  %8 = alloca ptr, align 8
  %9 = alloca ptr, align 8
  %10 = alloca ptr, align 8
  %11 = alloca i32, align 4
  store ptr %0, ptr %5, align 8, !tbaa !3
  store i64 %1, ptr %6, align 8, !tbaa !37
  store i32 %2, ptr %7, align 4, !tbaa !12
  call void @llvm.lifetime.start.p0(i64 8, ptr %8) #7
  store ptr null, ptr %8, align 8, !tbaa !56
  call void @llvm.lifetime.start.p0(i64 8, ptr %9) #7
  store ptr null, ptr %9, align 8, !tbaa !3
  call void @llvm.lifetime.start.p0(i64 8, ptr %10) #7
  %12 = load ptr, ptr %5, align 8, !tbaa !3
  store ptr %12, ptr %10, align 8, !tbaa !8
  %13 = load i64, ptr %6, align 8, !tbaa !37
  %14 = icmp uge i64 %13, 536870912
  br i1 %14, label %15, label %17

15:                                               ; preds = %3
  %16 = load ptr, ptr @PyExc_ValueError, align 8, !tbaa !3
  call void @PyErr_SetString(ptr noundef %16, ptr noundef @.str.43)
  store ptr null, ptr %4, align 8
  store i32 1, ptr %11, align 4
  br label %49

17:                                               ; preds = %3
  %18 = load i64, ptr %6, align 8, !tbaa !37
  %19 = call ptr @PyMem_Malloc(i64 noundef %18)
  store ptr %19, ptr %8, align 8, !tbaa !56
  %20 = load ptr, ptr %8, align 8, !tbaa !56
  %21 = icmp eq ptr %20, null
  br i1 %21, label %22, label %24

22:                                               ; preds = %17
  %23 = call ptr @PyErr_NoMemory()
  store ptr %23, ptr %4, align 8
  store i32 1, ptr %11, align 4
  br label %49

24:                                               ; preds = %17
  %25 = load i64, ptr %6, align 8, !tbaa !37
  %26 = icmp ugt i64 %25, 0
  br i1 %26, label %27, label %35

27:                                               ; preds = %24
  %28 = load ptr, ptr %10, align 8, !tbaa !8
  %29 = getelementptr inbounds nuw %struct.SHA3object, ptr %28, i32 0, i32 3
  %30 = load ptr, ptr %29, align 8, !tbaa !22
  %31 = load ptr, ptr %8, align 8, !tbaa !56
  %32 = load i64, ptr %6, align 8, !tbaa !37
  %33 = trunc i64 %32 to i32
  %34 = call zeroext i8 @python_hashlib_Hacl_Hash_SHA3_squeeze(ptr noundef %30, ptr noundef %31, i32 noundef %33)
  br label %35

35:                                               ; preds = %27, %24
  %36 = load i32, ptr %7, align 4, !tbaa !12
  %37 = icmp ne i32 %36, 0
  br i1 %37, label %38, label %42

38:                                               ; preds = %35
  %39 = load ptr, ptr %8, align 8, !tbaa !56
  %40 = load i64, ptr %6, align 8, !tbaa !37
  %41 = call ptr @_Py_strhex(ptr noundef %39, i64 noundef %40)
  store ptr %41, ptr %9, align 8, !tbaa !3
  br label %46

42:                                               ; preds = %35
  %43 = load ptr, ptr %8, align 8, !tbaa !56
  %44 = load i64, ptr %6, align 8, !tbaa !37
  %45 = call ptr @PyBytes_FromStringAndSize(ptr noundef %43, i64 noundef %44)
  store ptr %45, ptr %9, align 8, !tbaa !3
  br label %46

46:                                               ; preds = %42, %38
  %47 = load ptr, ptr %8, align 8, !tbaa !56
  call void @PyMem_Free(ptr noundef %47)
  %48 = load ptr, ptr %9, align 8, !tbaa !3
  store ptr %48, ptr %4, align 8
  store i32 1, ptr %11, align 4
  br label %49

49:                                               ; preds = %46, %22, %15
  call void @llvm.lifetime.end.p0(i64 8, ptr %10) #7
  call void @llvm.lifetime.end.p0(i64 8, ptr %9) #7
  call void @llvm.lifetime.end.p0(i64 8, ptr %8) #7
  %50 = load ptr, ptr %4, align 8
  ret ptr %50
}

; Function Attrs: nounwind uwtable
define internal ptr @_sha3_shake_128_digest_impl(ptr noundef %0, i64 noundef %1) #0 {
  %3 = alloca ptr, align 8
  %4 = alloca i64, align 8
  store ptr %0, ptr %3, align 8, !tbaa !8
  store i64 %1, ptr %4, align 8, !tbaa !37
  %5 = load ptr, ptr %3, align 8, !tbaa !8
  %6 = load i64, ptr %4, align 8, !tbaa !37
  %7 = call ptr @_SHAKE_digest(ptr noundef %5, i64 noundef %6, i32 noundef 0)
  ret ptr %7
}

; Function Attrs: nounwind uwtable
define internal ptr @_sha3_shake_128_digest(ptr noundef %0, ptr noundef %1) #0 {
  %3 = alloca ptr, align 8
  %4 = alloca ptr, align 8
  %5 = alloca ptr, align 8
  %6 = alloca i64, align 8
  store ptr %0, ptr %3, align 8, !tbaa !3
  store ptr %1, ptr %4, align 8, !tbaa !3
  call void @llvm.lifetime.start.p0(i64 8, ptr %5) #7
  store ptr null, ptr %5, align 8, !tbaa !3
  call void @llvm.lifetime.start.p0(i64 8, ptr %6) #7
  %7 = load ptr, ptr %4, align 8, !tbaa !3
  %8 = call i32 @_PyLong_UnsignedLong_Converter(ptr noundef %7, ptr noundef %6)
  %9 = icmp ne i32 %8, 0
  br i1 %9, label %11, label %10

10:                                               ; preds = %2
  br label %15

11:                                               ; preds = %2
  %12 = load ptr, ptr %3, align 8, !tbaa !3
  %13 = load i64, ptr %6, align 8, !tbaa !37
  %14 = call ptr @_sha3_shake_128_digest_impl(ptr noundef %12, i64 noundef %13)
  store ptr %14, ptr %5, align 8, !tbaa !3
  br label %15

15:                                               ; preds = %11, %10
  %16 = load ptr, ptr %5, align 8, !tbaa !3
  call void @llvm.lifetime.end.p0(i64 8, ptr %6) #7
  call void @llvm.lifetime.end.p0(i64 8, ptr %5) #7
  ret ptr %16
}